; Function Attrs: mustprogress nofree norecurse nosync nounwind willreturn memory(read, inaccessiblemem: none) uwtable
define internal noundef ptr @_ZNK9grpc_core12_GLOBAL__N_15RlsLb18ChildPolicyWrapper17ChildPolicyHelper13parent_helperEv(ptr nocapture noundef nonnull readonly align 8 dereferenceable(16) %this) unnamed_addr #20 align 2 {
entry:
  %wrapper_ = getelementptr inbounds i8, ptr %this, i64 8
  %wrapper_.val = load ptr, ptr %wrapper_, align 8
  %lb_policy_ = getelementptr inbounds i8, ptr %wrapper_.val, i64 16
  %lb_policy_.val = load ptr, ptr %lb_policy_, align 8
  %channel_control_helper_.i = getelementptr inbounds i8, ptr %lb_policy_.val, i64 40
  %0 = load ptr, ptr %channel_control_helper_.i, align 8
  ret ptr %0
}